; Function Attrs: nounwind uwtable
define hidden void @zim_Phar_mapPhar(ptr noundef readonly captures(none) %0, ptr noundef writeonly captures(none) %1) #0 {
  %3 = alloca ptr, align 8
  %4 = alloca ptr, align 8
  %5 = alloca i64, align 8
  %6 = alloca i64, align 8
  call void @llvm.lifetime.start.p0(i64 8, ptr nonnull %3) #20
  store ptr null, ptr %3, align 8, !tbaa !47
  call void @llvm.lifetime.start.p0(i64 8, ptr nonnull %4) #20
  call void @llvm.lifetime.start.p0(i64 8, ptr nonnull %5) #20
  store i64 0, ptr %5, align 8, !tbaa !50
  call void @llvm.lifetime.start.p0(i64 8, ptr nonnull %6) #20
  store i64 0, ptr %6, align 8, !tbaa !50
  %7 = getelementptr inbounds nuw i8, ptr %0, i64 44
  %8 = load i32, ptr %7, align 4, !tbaa !8
  %9 = call i32 (i32, ptr, ...) @zend_parse_parameters(i32 noundef %8, ptr noundef nonnull @.str.41, ptr noundef nonnull %3, ptr noundef nonnull %5, ptr noundef nonnull %6) #20
  %10 = icmp eq i32 %9, -1
  br i1 %10, label %11, label %14

11:                                               ; preds = %2
  %12 = load ptr, ptr getelementptr inbounds nuw (i8, ptr @executor_globals, i64 960), align 8, !tbaa !9
  %13 = icmp ne ptr %12, null
  call void @llvm.assume(i1 %13)
  br label %26

14:                                               ; preds = %2
  call void @phar_request_initialize() #20
  %15 = load ptr, ptr %3, align 8, !tbaa !47
  %16 = load i64, ptr %5, align 8, !tbaa !50
  %17 = call i32 @phar_open_executed_filename(ptr noundef %15, i64 noundef %16, ptr noundef nonnull %4) #20
  %18 = icmp eq i32 %17, 0
  %19 = select i1 %18, i32 3, i32 2
  %20 = getelementptr inbounds nuw i8, ptr %1, i64 8
  store i32 %19, ptr %20, align 8, !tbaa !8
  %21 = load ptr, ptr %4, align 8, !tbaa !47
  %.not = icmp eq ptr %21, null
  br i1 %.not, label %26, label %22

22:                                               ; preds = %14
  %23 = load ptr, ptr @phar_ce_PharException, align 8, !tbaa !54
  %24 = call ptr (ptr, i64, ptr, ...) @zend_throw_exception_ex(ptr noundef %23, i64 noundef 0, ptr noundef nonnull @.str.9, ptr noundef nonnull %21) #20
  %25 = load ptr, ptr %4, align 8, !tbaa !47
  call void @_efree(ptr noundef %25) #20
  br label %26

26:                                               ; preds = %14, %22, %11
  call void @llvm.lifetime.end.p0(i64 8, ptr nonnull %6) #20
  call void @llvm.lifetime.end.p0(i64 8, ptr nonnull %5) #20
  call void @llvm.lifetime.end.p0(i64 8, ptr nonnull %4) #20
  call void @llvm.lifetime.end.p0(i64 8, ptr nonnull %3) #20
  ret void
}